ccopy_reg
_reconstructor
p1
(clenstools.pipeline.settings
PlaneSettings
p2
c__builtin__
object
p3
NtRp4
(dp5
S'kind'
p6
S'potential'
p7
sS'thickness_resolution'
p8
I1
sS'name_format'
p9
S'snap{0}_{1}Plane{2}_normal{3}.{4}'
p10
sS'format'
p11
S'fits'
p12
sS'last_snapshot'
p13
NsS'normals'
p14
(lp15
I0
aI1
aI2
asS'smooth'
p16
I1
sS'snapshots'
p17
(lp18
I50
asS'thickness'
p19
cnumpy.core.multiarray
_reconstruct
p20
(castropy.units.quantity
Quantity
p21
(I0
tS'b'
tRp22
((I1
(tcnumpy
dtype
p23
(S'f8'
I0
I1
tRp24
(I3
S'<'
NNNI-1
I-1
I0
tbI00
S'fffff\xc6[@'
t(dp25
S'_unit'
p26
g1
(castropy.units.core
PrefixUnit
p27
g3
NtRp28
(dp29
S'_format'
p30
(dp31
sS'_short_names'
p32
(lp33
VMpc
p34
asS'_names'
p35
(lp36
g34
aVmegaparsec
p37
asS'_represents'
p38
g1
(castropy.units.core
CompositeUnit
p39
g3
NtRp40
(dp41
S'_decomposed_cache'
p42
g1
(g39
g3
NtRp43
(dp44
g42
NsS'_powers'
p45
(lp46
I1
asS'_scale'
p47
F3.0856775814671917e+22
sS'_hash'
p48
NsS'_bases'
p49
(lp50
castropy.units.core
_recreate_irreducible_unit
p51
(castropy.units.core
IrreducibleUnit
p52
(lp53
Vm
aVmeter
p54
aI01
tRp55
(dp56
g30
(dp57
sg32
(lp58
Vm
asg35
(lp59
Vm
ag54
asS'__doc__'
p60
Vmeter: base unit of length in SI
p61
sS'_long_names'
p62
(lp63
g54
asbasbsg45
(lp64
I1
asg47
F1000000
sg48
I5922263298416514872
sg49
(lp65
g1
(castropy.units.core
Unit
p66
g3
NtRp67
(dp68
g30
(dp69
sg32
(lp70
Vpc
p71
asg35
(lp72
g71
aVparsec
p73
asg38
g1
(g39
g3
NtRp74
(dp75
g42
g74
sg45
(lp76
I1
asg47
F30856775814671916
sg48
I-1459738009292166718
sg49
(lp77
g55
asbsg60
Vparsec: approximately 3.26 light-years.
p78
sg62
(lp79
g73
asbasbsg60
Vmegaparsec (Mpc)
p80
sg62
(lp81
g37
asbstbsS'cut_points'
p82
g20
(g21
(I0
tS'b'
tRp83
((I1
(I3
tg24
I00
S'\xcd\xcc\xcc\xcc\xcc\xccK@fffff\xd6d@\xcd\xcc\xcc\xcc\xcc\\q@'
t(dp84
g26
g28
stbsS'plane_resolution'
p85
I4096
sS'override_with_local'
p86
I00
sS'directory_name'
p87
S'PlanesBenchmark'
p88
sS'length_unit'
p89
g28
sS'first_snapshot'
p90
Nsb.